#include <math.h>
#include <stdio.h>
#include <stdlib.h>
#include <string.h>


int main(){
	int n,m,i,j,k,l;
	scanf("%d",&n);
	for(i=0;n!=1;i++)
	{
		if(n%2==0)
		{
			m=n/2;
			printf("%d/2=%d\n",n,m);
			n/=2;
		}
		else if(n%2!=0)
		{
			m=n*3+1;
			printf("%d*3+1=%d\n",n,m);
			n=n*3+1;
		}
	}
	printf("End");
	return 0;
}
